target datalayout = "e-m:e-p270:32:32-p271:32:32-p272:64:64-i64:64-i128:128-f80:128-n8:16:32:64-S128"
target triple = "x86_64-pc-linux-gnu"

%struct.epan_column_info = type { ptr, i32, ptr, ptr, ptr, %struct.col_expr_t, i32, ptr }
%struct.col_expr_t = type { ptr, ptr }
%struct.col_item_t = type { i32, ptr, ptr, ptr, i32, ptr, ptr, ptr, ptr, i32, i32, i32 }

@.str.1 = private unnamed_addr constant [1 x i8] zeroinitializer, align 1
@.str.7 = private unnamed_addr constant [20 x i8] c"epan/column-utils.c\00", align 1
@.str.9 = private unnamed_addr constant [31 x i8] c"assertion \22not reached\22 failed\00", align 1
@.str.12 = private unnamed_addr constant [11 x i8] c"Read error\00", align 1
@__func__.col_fill_in_error = private unnamed_addr constant [18 x i8] c"col_fill_in_error\00", align 1
@.str.13 = private unnamed_addr constant [4 x i8] c"???\00", align 1

; Function Attrs: nounwind uwtable
define i32 @col_based_on_frame_data(ptr noundef %0, i32 noundef %1) #0 {
  %3 = alloca i32, align 4
  %4 = alloca ptr, align 8
  %5 = alloca i32, align 4
  store ptr %0, ptr %4, align 8
  store i32 %1, ptr %5, align 4
  br label %6

6:                                                ; preds = %2
  br label %7

7:                                                ; preds = %6
  br label %8

8:                                                ; preds = %7
  br label %9

9:                                                ; preds = %8
  %10 = load ptr, ptr %4, align 8
  %11 = getelementptr inbounds %struct.epan_column_info, ptr %10, i32 0, i32 2
  %12 = load ptr, ptr %11, align 8
  %13 = load i32, ptr %5, align 4
  %14 = sext i32 %13 to i64
  %15 = getelementptr %struct.col_item_t, ptr %12, i64 %14
  %16 = getelementptr inbounds %struct.col_item_t, ptr %15, i32 0, i32 0
  %17 = load i32, ptr %16, align 8
  switch i32 %17, label %19 [
    i32 32, label %18
    i32 45, label %18
    i32 2, label %18
    i32 0, label %18
    i32 1, label %18
    i32 44, label %18
    i32 42, label %18
    i32 43, label %18
    i32 35, label %18
    i32 5, label %18
    i32 6, label %18
    i32 33, label %18
    i32 3, label %18
  ]

18:                                               ; preds = %9, %9, %9, %9, %9, %9, %9, %9, %9, %9, %9, %9, %9
  store i32 1, ptr %3, align 4
  br label %20

19:                                               ; preds = %9
  store i32 0, ptr %3, align 4
  br label %20

20:                                               ; preds = %19, %18
  %21 = load i32, ptr %3, align 4
  ret i32 %21
}

; Function Attrs: nounwind uwtable
define void @col_fill_in_error(ptr noundef %0, ptr noundef %1, i32 noundef %2, i32 noundef %3) #0 {
  %5 = alloca ptr, align 8
  %6 = alloca ptr, align 8
  %7 = alloca i32, align 4
  %8 = alloca i32, align 4
  %9 = alloca i32, align 4
  %10 = alloca ptr, align 8
  store ptr %0, ptr %5, align 8
  store ptr %1, ptr %6, align 8
  store i32 %2, ptr %7, align 4
  store i32 %3, ptr %8, align 4
  %11 = load ptr, ptr %5, align 8
  %12 = icmp ne ptr %11, null
  br i1 %12, label %14, label %13

13:                                               ; preds = %4
  br label %63

14:                                               ; preds = %4
  store i32 0, ptr %9, align 4
  br label %15

15:                                               ; preds = %60, %14
  %16 = load i32, ptr %9, align 4
  %17 = load ptr, ptr %5, align 8
  %18 = getelementptr inbounds %struct.epan_column_info, ptr %17, i32 0, i32 1
  %19 = load i32, ptr %18, align 8
  %20 = icmp slt i32 %16, %19
  br i1 %20, label %21, label %63

21:                                               ; preds = %15
  %22 = load ptr, ptr %5, align 8
  %23 = getelementptr inbounds %struct.epan_column_info, ptr %22, i32 0, i32 2
  %24 = load ptr, ptr %23, align 8
  %25 = load i32, ptr %9, align 4
  %26 = sext i32 %25 to i64
  %27 = getelementptr %struct.col_item_t, ptr %24, i64 %26
  store ptr %27, ptr %10, align 8
  %28 = load ptr, ptr %5, align 8
  %29 = load i32, ptr %9, align 4
  %30 = call i32 @col_based_on_frame_data(ptr noundef %28, i32 noundef %29)
  %31 = icmp ne i32 %30, 0
  br i1 %31, label %32, label %41

32:                                               ; preds = %21
  %33 = load i32, ptr %8, align 4
  %34 = icmp ne i32 %33, 0
  br i1 %34, label %35, label %40

35:                                               ; preds = %32
  %36 = load ptr, ptr %6, align 8
  %37 = load ptr, ptr %5, align 8
  %38 = load i32, ptr %9, align 4
  %39 = load i32, ptr %7, align 4
  call void @col_fill_in_frame_data(ptr noundef %36, ptr noundef %37, i32 noundef %38, i32 noundef %39)
  br label %40

40:                                               ; preds = %35, %32
  br label %59

41:                                               ; preds = %21
  %42 = load ptr, ptr %10, align 8
  %43 = getelementptr inbounds %struct.col_item_t, ptr %42, i32 0, i32 0
  %44 = load i32, ptr %43, align 8
  %45 = icmp eq i32 %44, 25
  br i1 %45, label %46, label %49

46:                                               ; preds = %41
  %47 = load ptr, ptr %10, align 8
  %48 = getelementptr inbounds %struct.col_item_t, ptr %47, i32 0, i32 7
  store ptr @.str.12, ptr %48, align 8
  br label %58

49:                                               ; preds = %41
  %50 = load ptr, ptr %10, align 8
  %51 = getelementptr inbounds %struct.col_item_t, ptr %50, i32 0, i32 0
  %52 = load i32, ptr %51, align 8
  %53 = icmp sge i32 %52, 46
  br i1 %53, label %54, label %55

54:                                               ; preds = %49
  call void (ptr, i32, ptr, i64, ptr, ptr, ...) @ws_log_fatal_full(ptr noundef @.str.1, i32 noundef 7, ptr noundef @.str.7, i64 noundef 2029, ptr noundef @__func__.col_fill_in_error, ptr noundef @.str.9) #10
  unreachable

55:                                               ; preds = %49
  %56 = load ptr, ptr %10, align 8
  %57 = getelementptr inbounds %struct.col_item_t, ptr %56, i32 0, i32 7
  store ptr @.str.13, ptr %57, align 8
  br label %63

58:                                               ; preds = %46
  br label %59

59:                                               ; preds = %58, %40
  br label %60

60:                                               ; preds = %59
  %61 = load i32, ptr %9, align 4
  %62 = add i32 %61, 1
  store i32 %62, ptr %9, align 4
  br label %15, !llvm.loop !30

63:                                               ; preds = %55, %15, %13
  ret void
}