; Function Attrs: nounwind uwtable
define void @col_fill_in_error(ptr noundef readonly %0, ptr noundef %1, i32 noundef %2, i32 noundef %3) local_unnamed_addr #0 {
  %.not = icmp eq ptr %0, null
  br i1 %.not, label %.loopexit, label %.preheader

.preheader:                                       ; preds = %4
  %5 = getelementptr inbounds nuw i8, ptr %0, i64 8
  %6 = load i32, ptr %5, align 8
  %7 = icmp sgt i32 %6, 0
  br i1 %7, label %.lr.ph, label %.loopexit

.lr.ph:                                           ; preds = %.preheader
  %8 = getelementptr inbounds nuw i8, ptr %0, i64 16
  %.not19 = icmp eq i32 %3, 0
  br i1 %.not19, label %.lr.ph.split.us, label %.lr.ph.split

.lr.ph.split.us:                                  ; preds = %.lr.ph, %col_based_on_frame_data.exit.us
  %9 = phi i32 [ %15, %col_based_on_frame_data.exit.us ], [ %6, %.lr.ph ]
  %indvars.iv35 = phi i64 [ %indvars.iv.next36, %col_based_on_frame_data.exit.us ], [ 0, %.lr.ph ]
  %10 = load ptr, ptr %8, align 8
  %11 = getelementptr %struct.col_item_t, ptr %10, i64 %indvars.iv35
  %12 = load i32, ptr %11, align 8
  switch i32 %12, label %.split.us [
    i32 32, label %col_based_on_frame_data.exit.us
    i32 45, label %col_based_on_frame_data.exit.us
    i32 2, label %col_based_on_frame_data.exit.us
    i32 0, label %col_based_on_frame_data.exit.us
    i32 1, label %col_based_on_frame_data.exit.us
    i32 44, label %col_based_on_frame_data.exit.us
    i32 42, label %col_based_on_frame_data.exit.us
    i32 43, label %col_based_on_frame_data.exit.us
    i32 35, label %col_based_on_frame_data.exit.us
    i32 5, label %col_based_on_frame_data.exit.us
    i32 6, label %col_based_on_frame_data.exit.us
    i32 33, label %col_based_on_frame_data.exit.us
    i32 3, label %col_based_on_frame_data.exit.us
    i32 25, label %13
  ]

13:                                               ; preds = %.lr.ph.split.us
  %14 = getelementptr inbounds nuw i8, ptr %11, i64 56
  store ptr @.str.12, ptr %14, align 8
  %.pre = load i32, ptr %5, align 8
  br label %col_based_on_frame_data.exit.us

col_based_on_frame_data.exit.us:                  ; preds = %.lr.ph.split.us, %.lr.ph.split.us, %.lr.ph.split.us, %.lr.ph.split.us, %.lr.ph.split.us, %.lr.ph.split.us, %.lr.ph.split.us, %.lr.ph.split.us, %.lr.ph.split.us, %.lr.ph.split.us, %.lr.ph.split.us, %.lr.ph.split.us, %.lr.ph.split.us, %13
  %15 = phi i32 [ %9, %.lr.ph.split.us ], [ %9, %.lr.ph.split.us ], [ %9, %.lr.ph.split.us ], [ %9, %.lr.ph.split.us ], [ %9, %.lr.ph.split.us ], [ %9, %.lr.ph.split.us ], [ %9, %.lr.ph.split.us ], [ %9, %.lr.ph.split.us ], [ %9, %.lr.ph.split.us ], [ %9, %.lr.ph.split.us ], [ %9, %.lr.ph.split.us ], [ %9, %.lr.ph.split.us ], [ %9, %.lr.ph.split.us ], [ %.pre, %13 ]
  %indvars.iv.next36 = add nuw nsw i64 %indvars.iv35, 1
  %16 = sext i32 %15 to i64
  %17 = icmp slt i64 %indvars.iv.next36, %16
  br i1 %17, label %.lr.ph.split.us, label %.loopexit, !llvm.loop !30

.lr.ph.split:                                     ; preds = %.lr.ph, %28
  %indvars.iv = phi i64 [ %indvars.iv.next, %28 ], [ 0, %.lr.ph ]
  %18 = load ptr, ptr %8, align 8
  %19 = getelementptr %struct.col_item_t, ptr %18, i64 %indvars.iv
  %20 = load i32, ptr %19, align 8
  switch i32 %20, label %.split.us [
    i32 32, label %col_based_on_frame_data.exit
    i32 45, label %col_based_on_frame_data.exit
    i32 2, label %col_based_on_frame_data.exit
    i32 0, label %col_based_on_frame_data.exit
    i32 1, label %col_based_on_frame_data.exit
    i32 44, label %col_based_on_frame_data.exit
    i32 42, label %col_based_on_frame_data.exit
    i32 43, label %col_based_on_frame_data.exit
    i32 35, label %col_based_on_frame_data.exit
    i32 5, label %col_based_on_frame_data.exit
    i32 6, label %col_based_on_frame_data.exit
    i32 33, label %col_based_on_frame_data.exit
    i32 3, label %col_based_on_frame_data.exit
    i32 25, label %22
  ]

col_based_on_frame_data.exit:                     ; preds = %.lr.ph.split, %.lr.ph.split, %.lr.ph.split, %.lr.ph.split, %.lr.ph.split, %.lr.ph.split, %.lr.ph.split, %.lr.ph.split, %.lr.ph.split, %.lr.ph.split, %.lr.ph.split, %.lr.ph.split, %.lr.ph.split
  %21 = trunc nuw nsw i64 %indvars.iv to i32
  tail call void @col_fill_in_frame_data(ptr noundef %1, ptr noundef nonnull %0, i32 noundef %21, i32 noundef %2)
  br label %28

22:                                               ; preds = %.lr.ph.split
  %23 = getelementptr inbounds nuw i8, ptr %19, i64 56
  store ptr @.str.12, ptr %23, align 8
  br label %28

.split.us:                                        ; preds = %.lr.ph.split, %.lr.ph.split.us
  %.us-phi = phi ptr [ %11, %.lr.ph.split.us ], [ %19, %.lr.ph.split ]
  %.us-phi24 = phi i32 [ %12, %.lr.ph.split.us ], [ %20, %.lr.ph.split ]
  %24 = icmp sgt i32 %.us-phi24, 45
  br i1 %24, label %25, label %26

25:                                               ; preds = %.split.us
  tail call void (ptr, i32, ptr, i64, ptr, ptr, ...) @ws_log_fatal_full(ptr noundef nonnull @.str.1, i32 noundef 7, ptr noundef nonnull @.str.7, i64 noundef 2029, ptr noundef nonnull @__func__.col_fill_in_error, ptr noundef nonnull @.str.9) #19
  unreachable

26:                                               ; preds = %.split.us
  %27 = getelementptr inbounds nuw i8, ptr %.us-phi, i64 56
  store ptr @.str.13, ptr %27, align 8
  br label %.loopexit

28:                                               ; preds = %22, %col_based_on_frame_data.exit
  %indvars.iv.next = add nuw nsw i64 %indvars.iv, 1
  %29 = load i32, ptr %5, align 8
  %30 = sext i32 %29 to i64
  %31 = icmp slt i64 %indvars.iv.next, %30
  br i1 %31, label %.lr.ph.split, label %.loopexit, !llvm.loop !30

.loopexit:                                        ; preds = %28, %col_based_on_frame_data.exit.us, %.preheader, %4, %26
  ret void
}